target datalayout = "e-m:e-p270:32:32-p271:32:32-p272:64:64-i64:64-i128:128-f80:128-n8:16:32:64-S128"
target triple = "x86_64-pc-linux-gnu"

%struct.malloc_info = type { ptr, i32, i64, ptr, ptr }

@mi_head = global ptr null, align 8
@stdout = external global ptr, align 8
@.str = private unnamed_addr constant [31 x i8] c"%s: %s (%4d): %zd bytes at %p\0A\00", align 1
@.str.1 = private unnamed_addr constant [7 x i8] c"LEAKED\00", align 1

; Function Attrs: nounwind uwtable
define void @stblkck_internal_print(ptr noundef %0, ptr noundef %1) #0 {
  %3 = alloca ptr, align 8
  %4 = alloca ptr, align 8
  store ptr %0, ptr %3, align 8, !tbaa !7
  store ptr %1, ptr %4, align 8, !tbaa !12
  %5 = load ptr, ptr @stdout, align 8, !tbaa !21
  %6 = load ptr, ptr %3, align 8, !tbaa !7
  %7 = load ptr, ptr %4, align 8, !tbaa !12
  %8 = getelementptr inbounds nuw %struct.malloc_info, ptr %7, i32 0, i32 0
  %9 = load ptr, ptr %8, align 8, !tbaa !14
  %10 = load ptr, ptr %4, align 8, !tbaa !12
  %11 = getelementptr inbounds nuw %struct.malloc_info, ptr %10, i32 0, i32 1
  %12 = load i32, ptr %11, align 8, !tbaa !16
  %13 = load ptr, ptr %4, align 8, !tbaa !12
  %14 = getelementptr inbounds nuw %struct.malloc_info, ptr %13, i32 0, i32 2
  %15 = load i64, ptr %14, align 8, !tbaa !19
  %16 = load ptr, ptr %4, align 8, !tbaa !12
  %17 = getelementptr inbounds %struct.malloc_info, ptr %16, i64 1
  %18 = call i32 (ptr, ptr, ...) @fprintf(ptr noundef %5, ptr noundef @.str, ptr noundef %6, ptr noundef %9, i32 noundef %12, i64 noundef %15, ptr noundef %17) #5
  ret void
}

; Function Attrs: nounwind uwtable
define void @stb_leakcheck_dumpmem() #0 {
  %1 = alloca ptr, align 8
  call void @llvm.lifetime.start.p0(i64 8, ptr %1) #5
  %2 = load ptr, ptr @mi_head, align 8, !tbaa !12
  store ptr %2, ptr %1, align 8, !tbaa !12
  br label %3

3:                                                ; preds = %13, %0
  %4 = load ptr, ptr %1, align 8, !tbaa !12
  %5 = icmp ne ptr %4, null
  br i1 %5, label %6, label %17

6:                                                ; preds = %3
  %7 = load ptr, ptr %1, align 8, !tbaa !12
  %8 = getelementptr inbounds nuw %struct.malloc_info, ptr %7, i32 0, i32 2
  %9 = load i64, ptr %8, align 8, !tbaa !19
  %10 = icmp sge i64 %9, 0
  br i1 %10, label %11, label %13

11:                                               ; preds = %6
  %12 = load ptr, ptr %1, align 8, !tbaa !12
  call void @stblkck_internal_print(ptr noundef @.str.1, ptr noundef %12)
  br label %13

13:                                               ; preds = %11, %6
  %14 = load ptr, ptr %1, align 8, !tbaa !12
  %15 = getelementptr inbounds nuw %struct.malloc_info, ptr %14, i32 0, i32 3
  %16 = load ptr, ptr %15, align 8, !tbaa !17
  store ptr %16, ptr %1, align 8, !tbaa !12
  br label %3, !llvm.loop !23

17:                                               ; preds = %3
  call void @llvm.lifetime.end.p0(i64 8, ptr %1) #5
  ret void
}