; Function Attrs: nofree nounwind uwtable
define void @stb_leakcheck_dumpmem() local_unnamed_addr #6 {
  %.04 = load ptr, ptr @mi_head, align 8, !tbaa !13
  %.not5 = icmp eq ptr %.04, null
  br i1 %.not5, label %._crit_edge, label %.lr.ph

.lr.ph:                                           ; preds = %0, %11
  %.06 = phi ptr [ %.0, %11 ], [ %.04, %0 ]
  %1 = getelementptr inbounds nuw i8, ptr %.06, i64 16
  %2 = load i64, ptr %1, align 8, !tbaa !16
  %3 = icmp sgt i64 %2, -1
  br i1 %3, label %4, label %11

4:                                                ; preds = %.lr.ph
  %5 = load ptr, ptr @stdout, align 8, !tbaa !17
  %6 = load ptr, ptr %.06, align 8, !tbaa !3
  %7 = getelementptr inbounds nuw i8, ptr %.06, i64 8
  %8 = load i32, ptr %7, align 8, !tbaa !12
  %9 = getelementptr inbounds nuw i8, ptr %.06, i64 40
  %10 = tail call i32 (ptr, ptr, ...) @fprintf(ptr noundef %5, ptr noundef nonnull @.str, ptr noundef nonnull @.str.1, ptr noundef %6, i32 noundef %8, i64 noundef %2, ptr noundef nonnull %9) #9
  br label %11

11:                                               ; preds = %4, %.lr.ph
  %12 = getelementptr inbounds nuw i8, ptr %.06, i64 24
  %.0 = load ptr, ptr %12, align 8, !tbaa !13
  %.not = icmp eq ptr %.0, null
  br i1 %.not, label %._crit_edge, label %.lr.ph, !llvm.loop !19

._crit_edge:                                      ; preds = %11, %0
  ret void
}